target datalayout = "e-m:e-p270:32:32-p271:32:32-p272:64:64-i64:64-i128:128-f80:128-n8:16:32:64-S128"
target triple = "x86_64-unknown-linux-gnu"

%"class.absl::lts_20230802::Status" = type { i64 }
%"class.grpc_core::RefCountedPtr.48" = type { ptr }
%"class.std::__cxx11::basic_string" = type { %"struct.std::__cxx11::basic_string<char>::_Alloc_hider", i64, %union.anon }
%"struct.std::__cxx11::basic_string<char>::_Alloc_hider" = type { ptr }
%union.anon = type { i64, [8 x i8] }
%"class.grpc_core::Orphanable" = type { ptr }
%"struct.std::atomic.49" = type { %"struct.std::__atomic_base.50" }
%"struct.std::__atomic_base.50" = type { i64 }
%"class.std::__shared_count" = type { ptr }
%"class.absl::lts_20230802::Mutex" = type { %"struct.std::atomic.67" }
%"struct.std::atomic.67" = type { %"struct.std::__atomic_base.68" }
%"struct.std::__atomic_base.68" = type { i64 }
%"class.std::basic_string_view" = type { i64, ptr }
%"class.std::vector.225" = type { %"struct.std::_Vector_base.226" }
%"struct.std::_Vector_base.226" = type { %"struct.std::_Vector_base<grpc_core::XdsListenerResource::HttpConnectionManager::HttpFilter, std::allocator<grpc_core::XdsListenerResource::HttpConnectionManager::HttpFilter>>::_Vector_impl" }
%"struct.std::_Vector_base<grpc_core::XdsListenerResource::HttpConnectionManager::HttpFilter, std::allocator<grpc_core::XdsListenerResource::HttpConnectionManager::HttpFilter>>::_Vector_impl" = type { %"struct.std::_Vector_base<grpc_core::XdsListenerResource::HttpConnectionManager::HttpFilter, std::allocator<grpc_core::XdsListenerResource::HttpConnectionManager::HttpFilter>>::_Vector_impl_data" }
%"struct.std::_Vector_base<grpc_core::XdsListenerResource::HttpConnectionManager::HttpFilter, std::allocator<grpc_core::XdsListenerResource::HttpConnectionManager::HttpFilter>>::_Vector_impl_data" = type { ptr, ptr, ptr }
%"class.absl::lts_20230802::StatusOr.407" = type { %"class.absl::lts_20230802::internal_statusor::StatusOrData.408" }
%"class.absl::lts_20230802::internal_statusor::StatusOrData.408" = type { %union.anon.409, %union.anon.410 }
%union.anon.409 = type { %"class.absl::lts_20230802::Status" }
%union.anon.410 = type { %"class.std::shared_ptr.320" }
%"class.std::shared_ptr.320" = type { %"class.std::__shared_ptr.321" }
%"class.std::__shared_ptr.321" = type { ptr, %"class.std::__shared_count" }
%"class.grpc_core::(anonymous namespace)::XdsServerConfigFetcher::ListenerWatcher::FilterChainMatchManager::DynamicXdsServerConfigSelectorProvider" = type { %"class.grpc_core::ServerConfigSelectorProvider", %"class.grpc_core::RefCountedPtr.48", %"class.std::__cxx11::basic_string", %"class.std::vector.225", ptr, %"class.absl::lts_20230802::Mutex", %"class.std::unique_ptr.670", %"class.absl::lts_20230802::StatusOr.407" }
%"class.grpc_core::ServerConfigSelectorProvider" = type { %"class.grpc_core::DualRefCounted.669" }
%"class.grpc_core::DualRefCounted.669" = type { %"class.grpc_core::Orphanable", %"struct.std::atomic.49" }
%"class.std::unique_ptr.670" = type { %"struct.std::__uniq_ptr_data.671" }
%"struct.std::__uniq_ptr_data.671" = type { %"class.std::__uniq_ptr_impl.672" }
%"class.std::__uniq_ptr_impl.672" = type { %"class.std::tuple.673" }
%"class.std::tuple.673" = type { %"struct.std::_Tuple_impl.674" }
%"struct.std::_Tuple_impl.674" = type { %"struct.std::_Head_base.677" }
%"struct.std::_Head_base.677" = type { ptr }

@_ZZN9grpc_core19XdsResourceTypeImplINS_26XdsRouteConfigResourceTypeENS_22XdsRouteConfigResourceEE3GetEvE10g_instance = linkonce_odr global ptr null, comdat, align 8
@_ZGVZN9grpc_core19XdsResourceTypeImplINS_26XdsRouteConfigResourceTypeENS_22XdsRouteConfigResourceEE3GetEvE10g_instance = linkonce_odr global i64 0, comdat, align 8
@_ZTVN9grpc_core26XdsRouteConfigResourceTypeE = external unnamed_addr constant { [9 x ptr] }, align 8

; Function Attrs: mustprogress nounwind uwtable
define linkonce_odr void @_ZN9grpc_core15XdsResourceTypeC2Ev(ptr noundef nonnull align 8 dereferenceable(8) %this) unnamed_addr #5 comdat align 2 {
entry:
  %this.addr = alloca ptr, align 8
  store ptr %this, ptr %this.addr, align 8
  %this1 = load ptr, ptr %this.addr, align 8
  store ptr getelementptr inbounds ({ [9 x ptr] }, ptr @_ZTVN9grpc_core15XdsResourceTypeE, i32 0, i32 0, i32 2), ptr %this1, align 8
  ret void
}

; Function Attrs: mustprogress nounwind uwtable
define linkonce_odr void @_ZN9grpc_core19XdsResourceTypeImplINS_26XdsRouteConfigResourceTypeENS_22XdsRouteConfigResourceEEC2Ev(ptr noundef nonnull align 8 dereferenceable(8) %this) unnamed_addr #5 comdat align 2 {
entry:
  %this.addr = alloca ptr, align 8
  store ptr %this, ptr %this.addr, align 8
  %this1 = load ptr, ptr %this.addr, align 8
  call void @_ZN9grpc_core15XdsResourceTypeC2Ev(ptr noundef nonnull align 8 dereferenceable(8) %this1) #3
  store ptr getelementptr inbounds ({ [9 x ptr] }, ptr @_ZTVN9grpc_core19XdsResourceTypeImplINS_26XdsRouteConfigResourceTypeENS_22XdsRouteConfigResourceEEE, i32 0, i32 0, i32 2), ptr %this1, align 8
  ret void
}

; Function Attrs: mustprogress nounwind uwtable
define linkonce_odr void @_ZN9grpc_core26XdsRouteConfigResourceTypeC2Ev(ptr noundef nonnull align 8 dereferenceable(8) %this) unnamed_addr #5 comdat align 2 {
entry:
  %this.addr = alloca ptr, align 8
  store ptr %this, ptr %this.addr, align 8
  %this1 = load ptr, ptr %this.addr, align 8
  call void @_ZN9grpc_core19XdsResourceTypeImplINS_26XdsRouteConfigResourceTypeENS_22XdsRouteConfigResourceEEC2Ev(ptr noundef nonnull align 8 dereferenceable(8) %this1) #3
  store ptr getelementptr inbounds ({ [9 x ptr] }, ptr @_ZTVN9grpc_core26XdsRouteConfigResourceTypeE, i32 0, i32 0, i32 2), ptr %this1, align 8
  ret void
}

; Function Attrs: mustprogress uwtable
define linkonce_odr noundef ptr @_ZN9grpc_core19XdsResourceTypeImplINS_26XdsRouteConfigResourceTypeENS_22XdsRouteConfigResourceEE3GetEv() #4 comdat align 2 personality ptr @__gxx_personality_v0 {
entry:
  %exn.slot = alloca ptr, align 8
  %ehselector.slot = alloca i32, align 4
  %0 = load atomic i8, ptr @_ZGVZN9grpc_core19XdsResourceTypeImplINS_26XdsRouteConfigResourceTypeENS_22XdsRouteConfigResourceEE3GetEvE10g_instance acquire, align 8
  %guard.uninitialized = icmp eq i8 %0, 0
  br i1 %guard.uninitialized, label %init.check, label %init.end, !prof !23

init.check:                                       ; preds = %entry
  %1 = call i32 @__cxa_guard_acquire(ptr @_ZGVZN9grpc_core19XdsResourceTypeImplINS_26XdsRouteConfigResourceTypeENS_22XdsRouteConfigResourceEE3GetEvE10g_instance) #3
  %tobool = icmp ne i32 %1, 0
  br i1 %tobool, label %init, label %init.end

init:                                             ; preds = %init.check
  %call = invoke noalias noundef nonnull ptr @_Znwm(i64 noundef 8) #18
          to label %invoke.cont unwind label %lpad

invoke.cont:                                      ; preds = %init
  call void @llvm.memset.p0.i64(ptr align 8 %call, i8 0, i64 8, i1 false)
  call void @_ZN9grpc_core26XdsRouteConfigResourceTypeC2Ev(ptr noundef nonnull align 8 dereferenceable(8) %call) #3
  store ptr %call, ptr @_ZZN9grpc_core19XdsResourceTypeImplINS_26XdsRouteConfigResourceTypeENS_22XdsRouteConfigResourceEE3GetEvE10g_instance, align 8
  call void @__cxa_guard_release(ptr @_ZGVZN9grpc_core19XdsResourceTypeImplINS_26XdsRouteConfigResourceTypeENS_22XdsRouteConfigResourceEE3GetEvE10g_instance) #3
  br label %init.end

init.end:                                         ; preds = %invoke.cont, %init.check, %entry
  %2 = load ptr, ptr @_ZZN9grpc_core19XdsResourceTypeImplINS_26XdsRouteConfigResourceTypeENS_22XdsRouteConfigResourceEE3GetEvE10g_instance, align 8
  ret ptr %2

lpad:                                             ; preds = %init
  %3 = landingpad { ptr, i32 }
          cleanup
  %4 = extractvalue { ptr, i32 } %3, 0
  store ptr %4, ptr %exn.slot, align 8
  %5 = extractvalue { ptr, i32 } %3, 1
  store i32 %5, ptr %ehselector.slot, align 4
  call void @__cxa_guard_abort(ptr @_ZGVZN9grpc_core19XdsResourceTypeImplINS_26XdsRouteConfigResourceTypeENS_22XdsRouteConfigResourceEE3GetEvE10g_instance) #3
  br label %eh.resume

eh.resume:                                        ; preds = %lpad
  %exn = load ptr, ptr %exn.slot, align 8
  %sel = load i32, ptr %ehselector.slot, align 4
  %lpad.val = insertvalue { ptr, i32 } poison, ptr %exn, 0
  %lpad.val1 = insertvalue { ptr, i32 } %lpad.val, i32 %sel, 1
  resume { ptr, i32 } %lpad.val1
}

; Function Attrs: mustprogress uwtable
define linkonce_odr void @_ZN9grpc_core19XdsResourceTypeImplINS_26XdsRouteConfigResourceTypeENS_22XdsRouteConfigResourceEE11CancelWatchEPNS_9XdsClientESt17basic_string_viewIcSt11char_traitsIcEEPNS3_16WatcherInterfaceEb(ptr noundef %xds_client, i64 %resource_name.coerce0, ptr %resource_name.coerce1, ptr noundef %watcher, i1 noundef zeroext %delay_unsubscription) #4 comdat align 2 {
entry:
  %resource_name = alloca %"class.std::basic_string_view", align 8
  %xds_client.addr = alloca ptr, align 8
  %watcher.addr = alloca ptr, align 8
  %delay_unsubscription.addr = alloca i8, align 1
  %agg.tmp = alloca %"class.std::basic_string_view", align 8
  %0 = getelementptr inbounds { i64, ptr }, ptr %resource_name, i32 0, i32 0
  store i64 %resource_name.coerce0, ptr %0, align 8
  %1 = getelementptr inbounds { i64, ptr }, ptr %resource_name, i32 0, i32 1
  store ptr %resource_name.coerce1, ptr %1, align 8
  store ptr %xds_client, ptr %xds_client.addr, align 8
  store ptr %watcher, ptr %watcher.addr, align 8
  %frombool = zext i1 %delay_unsubscription to i8
  store i8 %frombool, ptr %delay_unsubscription.addr, align 1
  %2 = load ptr, ptr %xds_client.addr, align 8
  %call = call noundef ptr @_ZN9grpc_core19XdsResourceTypeImplINS_26XdsRouteConfigResourceTypeENS_22XdsRouteConfigResourceEE3GetEv()
  call void @llvm.memcpy.p0.p0.i64(ptr align 8 %agg.tmp, ptr align 8 %resource_name, i64 16, i1 false)
  %3 = load ptr, ptr %watcher.addr, align 8
  %4 = load i8, ptr %delay_unsubscription.addr, align 1
  %tobool = trunc i8 %4 to i1
  %5 = getelementptr inbounds { i64, ptr }, ptr %agg.tmp, i32 0, i32 0
  %6 = load i64, ptr %5, align 8
  %7 = getelementptr inbounds { i64, ptr }, ptr %agg.tmp, i32 0, i32 1
  %8 = load ptr, ptr %7, align 8
  call void @_ZN9grpc_core9XdsClient19CancelResourceWatchEPKNS_15XdsResourceTypeESt17basic_string_viewIcSt11char_traitsIcEEPNS0_24ResourceWatcherInterfaceEb(ptr noundef nonnull align 8 dereferenceable(433) %2, ptr noundef %call, i64 %6, ptr %8, ptr noundef %3, i1 noundef zeroext %tobool)
  ret void
}

; Function Attrs: mustprogress nounwind uwtable
define linkonce_odr noundef ptr @_ZNK9grpc_core13RefCountedPtrINS_13GrpcXdsClientEE3getEv(ptr noundef nonnull align 8 dereferenceable(8) %this) #5 comdat align 2 {
entry:
  %this.addr = alloca ptr, align 8
  store ptr %this, ptr %this.addr, align 8
  %this1 = load ptr, ptr %this.addr, align 8
  %value_ = getelementptr inbounds %"class.grpc_core::RefCountedPtr.48", ptr %this1, i32 0, i32 0
  %0 = load ptr, ptr %value_, align 8
  ret ptr %0
}

; Function Attrs: mustprogress uwtable
define internal void @_ZN9grpc_core12_GLOBAL__N_122XdsServerConfigFetcher15ListenerWatcher23FilterChainMatchManager38DynamicXdsServerConfigSelectorProvider6OrphanEv(ptr noundef nonnull align 8 dereferenceable(128) %this) unnamed_addr #4 align 2 {
entry:
  %this.addr = alloca ptr, align 8
  %agg.tmp = alloca %"class.std::basic_string_view", align 8
  store ptr %this, ptr %this.addr, align 8
  %this1 = load ptr, ptr %this.addr, align 8
  %xds_client_ = getelementptr inbounds %"class.grpc_core::(anonymous namespace)::XdsServerConfigFetcher::ListenerWatcher::FilterChainMatchManager::DynamicXdsServerConfigSelectorProvider", ptr %this1, i32 0, i32 1
  %call = call noundef ptr @_ZNK9grpc_core13RefCountedPtrINS_13GrpcXdsClientEE3getEv(ptr noundef nonnull align 8 dereferenceable(8) %xds_client_)
  %resource_name_ = getelementptr inbounds %"class.grpc_core::(anonymous namespace)::XdsServerConfigFetcher::ListenerWatcher::FilterChainMatchManager::DynamicXdsServerConfigSelectorProvider", ptr %this1, i32 0, i32 2
  %call2 = call { i64, ptr } @_ZNKSt7__cxx1112basic_stringIcSt11char_traitsIcESaIcEEcvSt17basic_string_viewIcS2_EEv(ptr noundef nonnull align 8 dereferenceable(32) %resource_name_) #3
  %0 = getelementptr inbounds { i64, ptr }, ptr %agg.tmp, i32 0, i32 0
  %1 = extractvalue { i64, ptr } %call2, 0
  store i64 %1, ptr %0, align 8
  %2 = getelementptr inbounds { i64, ptr }, ptr %agg.tmp, i32 0, i32 1
  %3 = extractvalue { i64, ptr } %call2, 1
  store ptr %3, ptr %2, align 8
  %route_config_watcher_ = getelementptr inbounds %"class.grpc_core::(anonymous namespace)::XdsServerConfigFetcher::ListenerWatcher::FilterChainMatchManager::DynamicXdsServerConfigSelectorProvider", ptr %this1, i32 0, i32 4
  %4 = load ptr, ptr %route_config_watcher_, align 8
  %5 = getelementptr inbounds { i64, ptr }, ptr %agg.tmp, i32 0, i32 0
  %6 = load i64, ptr %5, align 8
  %7 = getelementptr inbounds { i64, ptr }, ptr %agg.tmp, i32 0, i32 1
  %8 = load ptr, ptr %7, align 8
  call void @_ZN9grpc_core19XdsResourceTypeImplINS_26XdsRouteConfigResourceTypeENS_22XdsRouteConfigResourceEE11CancelWatchEPNS_9XdsClientESt17basic_string_viewIcSt11char_traitsIcEEPNS3_16WatcherInterfaceEb(ptr noundef %call, i64 %6, ptr %8, ptr noundef %4, i1 noundef zeroext false)
  ret void
}