; Function Attrs: mustprogress uwtable
define internal void @_ZN9grpc_core12_GLOBAL__N_122XdsServerConfigFetcher15ListenerWatcher23FilterChainMatchManager38DynamicXdsServerConfigSelectorProvider6OrphanEv(ptr noundef nonnull align 8 dereferenceable(128) %this) unnamed_addr #4 align 2 personality ptr @__gxx_personality_v0 {
entry:
  %xds_client_ = getelementptr inbounds i8, ptr %this, i64 16
  %0 = load ptr, ptr %xds_client_, align 8
  %resource_name_ = getelementptr inbounds i8, ptr %this, i64 24
  %call2 = tail call { i64, ptr } @_ZNKSt7__cxx1112basic_stringIcSt11char_traitsIcESaIcEEcvSt17basic_string_viewIcS2_EEv(ptr noundef nonnull align 8 dereferenceable(32) %resource_name_) #26
  %route_config_watcher_ = getelementptr inbounds i8, ptr %this, i64 80
  %1 = load ptr, ptr %route_config_watcher_, align 8
  %2 = load atomic i8, ptr @_ZGVZN9grpc_core19XdsResourceTypeImplINS_26XdsRouteConfigResourceTypeENS_22XdsRouteConfigResourceEE3GetEvE10g_instance acquire, align 8
  %guard.uninitialized.i.i = icmp eq i8 %2, 0
  br i1 %guard.uninitialized.i.i, label %init.check.i.i, label %_ZN9grpc_core19XdsResourceTypeImplINS_26XdsRouteConfigResourceTypeENS_22XdsRouteConfigResourceEE11CancelWatchEPNS_9XdsClientESt17basic_string_viewIcSt11char_traitsIcEEPNS3_16WatcherInterfaceEb.exit, !prof !14

init.check.i.i:                                   ; preds = %entry
  %3 = tail call i32 @__cxa_guard_acquire(ptr nonnull @_ZGVZN9grpc_core19XdsResourceTypeImplINS_26XdsRouteConfigResourceTypeENS_22XdsRouteConfigResourceEE3GetEvE10g_instance) #26
  %tobool.not.i.i = icmp eq i32 %3, 0
  br i1 %tobool.not.i.i, label %_ZN9grpc_core19XdsResourceTypeImplINS_26XdsRouteConfigResourceTypeENS_22XdsRouteConfigResourceEE11CancelWatchEPNS_9XdsClientESt17basic_string_viewIcSt11char_traitsIcEEPNS3_16WatcherInterfaceEb.exit, label %init.i.i

init.i.i:                                         ; preds = %init.check.i.i
  %call.i.i = invoke noalias noundef nonnull dereferenceable(8) ptr @_Znwm(i64 noundef 8) #27
          to label %invoke.cont.i.i unwind label %lpad.i.i

invoke.cont.i.i:                                  ; preds = %init.i.i
  store ptr getelementptr inbounds ({ [9 x ptr] }, ptr @_ZTVN9grpc_core26XdsRouteConfigResourceTypeE, i64 0, i32 0, i64 2), ptr %call.i.i, align 8
  store ptr %call.i.i, ptr @_ZZN9grpc_core19XdsResourceTypeImplINS_26XdsRouteConfigResourceTypeENS_22XdsRouteConfigResourceEE3GetEvE10g_instance, align 8
  tail call void @__cxa_guard_release(ptr nonnull @_ZGVZN9grpc_core19XdsResourceTypeImplINS_26XdsRouteConfigResourceTypeENS_22XdsRouteConfigResourceEE3GetEvE10g_instance) #26
  br label %_ZN9grpc_core19XdsResourceTypeImplINS_26XdsRouteConfigResourceTypeENS_22XdsRouteConfigResourceEE11CancelWatchEPNS_9XdsClientESt17basic_string_viewIcSt11char_traitsIcEEPNS3_16WatcherInterfaceEb.exit

lpad.i.i:                                         ; preds = %init.i.i
  %4 = landingpad { ptr, i32 }
          cleanup
  tail call void @__cxa_guard_abort(ptr nonnull @_ZGVZN9grpc_core19XdsResourceTypeImplINS_26XdsRouteConfigResourceTypeENS_22XdsRouteConfigResourceEE3GetEvE10g_instance) #26
  resume { ptr, i32 } %4

_ZN9grpc_core19XdsResourceTypeImplINS_26XdsRouteConfigResourceTypeENS_22XdsRouteConfigResourceEE11CancelWatchEPNS_9XdsClientESt17basic_string_viewIcSt11char_traitsIcEEPNS3_16WatcherInterfaceEb.exit: ; preds = %entry, %init.check.i.i, %invoke.cont.i.i
  %5 = extractvalue { i64, ptr } %call2, 1
  %6 = extractvalue { i64, ptr } %call2, 0
  %7 = load ptr, ptr @_ZZN9grpc_core19XdsResourceTypeImplINS_26XdsRouteConfigResourceTypeENS_22XdsRouteConfigResourceEE3GetEvE10g_instance, align 8
  tail call void @_ZN9grpc_core9XdsClient19CancelResourceWatchEPKNS_15XdsResourceTypeESt17basic_string_viewIcSt11char_traitsIcEEPNS0_24ResourceWatcherInterfaceEb(ptr noundef nonnull align 8 dereferenceable(433) %0, ptr noundef %7, i64 %6, ptr %5, ptr noundef %1, i1 noundef zeroext false)
  ret void
}